target datalayout = "e-m:e-p270:32:32-p271:32:32-p272:64:64-i64:64-i128:128-f80:128-n8:16:32:64-S128"
target triple = "x86_64-pc-linux-gnu"

%struct.gpg_format = type { ptr, ptr, ptr, ptr, ptr, ptr, ptr, ptr }

@configured_signing_key = internal global ptr null, align 8
@use_format = internal global ptr @gpg_format, align 8
@gpg_interface_lazy_init.done = internal global i32 0, align 4
@the_repository = external global ptr, align 8

; Function Attrs: inlinehint nounwind uwtable
define internal void @git_config(ptr noundef %0, ptr noundef %1) #4 {
  %3 = alloca ptr, align 8
  %4 = alloca ptr, align 8
  store ptr %0, ptr %3, align 8, !tbaa !54
  store ptr %1, ptr %4, align 8, !tbaa !54
  %5 = load ptr, ptr @the_repository, align 8, !tbaa !55
  %6 = load ptr, ptr %3, align 8, !tbaa !54
  %7 = load ptr, ptr %4, align 8, !tbaa !54
  call void @repo_config(ptr noundef %5, ptr noundef %6, ptr noundef %7)
  ret void
}

; Function Attrs: nounwind uwtable
define dso_local ptr @get_signing_key() #0 {
  %1 = alloca ptr, align 8
  call void @gpg_interface_lazy_init()
  %2 = load ptr, ptr @configured_signing_key, align 8, !tbaa !20
  %3 = icmp ne ptr %2, null
  br i1 %3, label %4, label %7

4:                                                ; preds = %0
  %5 = load ptr, ptr @configured_signing_key, align 8, !tbaa !20
  %6 = call ptr @xstrdup(ptr noundef %5)
  store ptr %6, ptr %1, align 8
  br label %20

7:                                                ; preds = %0
  %8 = load ptr, ptr @use_format, align 8, !tbaa !24
  %9 = getelementptr inbounds nuw %struct.gpg_format, ptr %8, i32 0, i32 6
  %10 = load ptr, ptr %9, align 8, !tbaa !47
  %11 = icmp ne ptr %10, null
  br i1 %11, label %12, label %17

12:                                               ; preds = %7
  %13 = load ptr, ptr @use_format, align 8, !tbaa !24
  %14 = getelementptr inbounds nuw %struct.gpg_format, ptr %13, i32 0, i32 6
  %15 = load ptr, ptr %14, align 8, !tbaa !47
  %16 = call ptr %15()
  store ptr %16, ptr %1, align 8
  br label %20

17:                                               ; preds = %7
  %18 = call ptr @git_committer_info(i32 noundef 3)
  %19 = call ptr @xstrdup(ptr noundef %18)
  store ptr %19, ptr %1, align 8
  br label %20

20:                                               ; preds = %17, %12, %4
  %21 = load ptr, ptr %1, align 8
  ret ptr %21
}

; Function Attrs: nounwind uwtable
define internal void @gpg_interface_lazy_init() #0 {
  %1 = load i32, ptr @gpg_interface_lazy_init.done, align 4, !tbaa !29
  %2 = icmp ne i32 %1, 0
  br i1 %2, label %3, label %4

3:                                                ; preds = %0
  br label %5

4:                                                ; preds = %0
  store i32 1, ptr @gpg_interface_lazy_init.done, align 4, !tbaa !29
  call void @git_config(ptr noundef @git_gpg_config, ptr noundef null)
  br label %5

5:                                                ; preds = %4, %3
  ret void
}

; Function Attrs: nounwind uwtable
define dso_local ptr @get_signing_key_id() #0 {
  %1 = alloca ptr, align 8
  call void @gpg_interface_lazy_init()
  %2 = load ptr, ptr @use_format, align 8, !tbaa !24
  %3 = getelementptr inbounds nuw %struct.gpg_format, ptr %2, i32 0, i32 7
  %4 = load ptr, ptr %3, align 8, !tbaa !46
  %5 = icmp ne ptr %4, null
  br i1 %5, label %6, label %11

6:                                                ; preds = %0
  %7 = load ptr, ptr @use_format, align 8, !tbaa !24
  %8 = getelementptr inbounds nuw %struct.gpg_format, ptr %7, i32 0, i32 7
  %9 = load ptr, ptr %8, align 8, !tbaa !46
  %10 = call ptr %9()
  store ptr %10, ptr %1, align 8
  br label %13

11:                                               ; preds = %0
  %12 = call ptr @get_signing_key()
  store ptr %12, ptr %1, align 8
  br label %13

13:                                               ; preds = %11, %6
  %14 = load ptr, ptr %1, align 8
  ret ptr %14
}