; Function Attrs: nounwind uwtable
define dso_local ptr @get_signing_key_id() local_unnamed_addr #2 {
  %.b.i = load i1, ptr @gpg_interface_lazy_init.done, align 4
  br i1 %.b.i, label %gpg_interface_lazy_init.exit, label %1

1:                                                ; preds = %0
  store i1 true, ptr @gpg_interface_lazy_init.done, align 4
  %2 = load ptr, ptr @the_repository, align 8, !tbaa !18
  tail call void @repo_config(ptr noundef %2, ptr noundef nonnull @git_gpg_config, ptr noundef null) #15
  br label %gpg_interface_lazy_init.exit

gpg_interface_lazy_init.exit:                     ; preds = %0, %1
  %3 = load ptr, ptr @use_format, align 8, !tbaa !38
  %4 = getelementptr inbounds nuw i8, ptr %3, i64 56
  %5 = load ptr, ptr %4, align 8, !tbaa !40
  %.not = icmp eq ptr %5, null
  br i1 %.not, label %8, label %6

6:                                                ; preds = %gpg_interface_lazy_init.exit
  %7 = tail call ptr %5() #15
  br label %get_signing_key.exit

8:                                                ; preds = %gpg_interface_lazy_init.exit
  %.b.i.i = load i1, ptr @gpg_interface_lazy_init.done, align 4
  br i1 %.b.i.i, label %gpg_interface_lazy_init.exit.i, label %9

9:                                                ; preds = %8
  store i1 true, ptr @gpg_interface_lazy_init.done, align 4
  %10 = load ptr, ptr @the_repository, align 8, !tbaa !18
  tail call void @repo_config(ptr noundef %10, ptr noundef nonnull @git_gpg_config, ptr noundef null) #15
  br label %gpg_interface_lazy_init.exit.i

gpg_interface_lazy_init.exit.i:                   ; preds = %9, %8
  %11 = load ptr, ptr @configured_signing_key, align 8, !tbaa !25
  %.not.i = icmp eq ptr %11, null
  br i1 %.not.i, label %14, label %12

12:                                               ; preds = %gpg_interface_lazy_init.exit.i
  %13 = tail call ptr @xstrdup(ptr noundef nonnull %11) #15
  br label %get_signing_key.exit

14:                                               ; preds = %gpg_interface_lazy_init.exit.i
  %15 = load ptr, ptr @use_format, align 8, !tbaa !38
  %16 = getelementptr inbounds nuw i8, ptr %15, i64 48
  %17 = load ptr, ptr %16, align 8, !tbaa !41
  %.not3.i = icmp eq ptr %17, null
  br i1 %.not3.i, label %20, label %18

18:                                               ; preds = %14
  %19 = tail call ptr %17() #15
  br label %get_signing_key.exit

20:                                               ; preds = %14
  %21 = tail call ptr @git_committer_info(i32 noundef 3) #15
  %22 = tail call ptr @xstrdup(ptr noundef %21) #15
  br label %get_signing_key.exit

get_signing_key.exit:                             ; preds = %20, %18, %12, %6
  %.0 = phi ptr [ %7, %6 ], [ %13, %12 ], [ %19, %18 ], [ %22, %20 ]
  ret ptr %.0
}